; Function Attrs: null_pointer_is_valid sspstrong uwtable
define internal void @sort_subindices(ptr readnone captures(none) %0, ptr noundef readonly captures(none) %1, ptr readnone captures(none) %2) #0 {
  %4 = getelementptr inbounds nuw i8, ptr %1, i64 88
  %5 = load ptr, ptr %4, align 8
  %.not = icmp eq ptr %5, null
  br i1 %.not, label %7, label %6

6:                                                ; preds = %3
  tail call fastcc void @epl_wmem_iarray_sort_and_compact(ptr noundef nonnull %5)
  br label %7

7:                                                ; preds = %6, %3
  ret void
}